target datalayout = "e-m:e-p270:32:32-p271:32:32-p272:64:64-i64:64-i128:128-f80:128-n8:16:32:64-S128"
target triple = "x86_64-pc-linux-gnu"

%struct.H5C_cache_entry_t = type { ptr, i64, i64, ptr, i8, ptr, i8, i8, i8, i8, i32, i8, i8, i8, i8, i8, i32, ptr, i32, i32, i32, i32, i32, i8, i8, ptr, ptr, ptr, ptr, ptr, ptr, i8, i32, i8, i64, ptr, i64, i64, i32, i8, i32, i32, i8, ptr, ptr, ptr }
%struct.H5EA_hdr_t = type { %struct.H5C_cache_entry_t, %struct.H5EA_create_t, i64, %struct.H5EA_stat_t, %struct.anon.1, i64, i64, i64, ptr, i64, i8, i64, i64, i8, i64, ptr, i64, ptr, i8, ptr, ptr }
%struct.H5EA_create_t = type { ptr, i8, i8, i8, i8, i8, i8 }
%struct.H5EA_stat_t = type { %struct.anon, %struct.anon.0 }
%struct.anon = type { i64, i64, i64 }
%struct.anon.0 = type { i64, i64, i64, i64, i64, i64 }
%struct.anon.1 = type { i64, ptr }

@H5EA_init_g = external global i8, align 1
@H5_libterm_g = external global i8, align 1
@.str.5 = private unnamed_addr constant [103 x i8] c"generated/home/dtcxzyw/WorkSpace/Projects/compilers/llvm-opt-benchmark/bench/hdf5/hdf5/src/H5EAcache.c\00", align 1
@H5E_EARRAY_g = external global i64, align 8
@H5E_BADVALUE_g = external global i64, align 8
@__func__.H5EA__cache_hdr_notify = private unnamed_addr constant [23 x i8] c"H5EA__cache_hdr_notify\00", align 1
@H5E_CANTUNDEPEND_g = external global i64, align 8
@.str.14 = private unnamed_addr constant [70 x i8] c"unable to destroy flush dependency between extensible array and proxy\00", align 1
@.str.15 = private unnamed_addr constant [83 x i8] c"unable to destroy flush dependency between header and extensible array 'top' proxy\00", align 1
@.str.16 = private unnamed_addr constant [35 x i8] c"unknown action from metadata cache\00", align 1

; Function Attrs: nounwind uwtable
define internal i32 @H5EA__cache_hdr_notify(i32 noundef %0, ptr noundef %1) #0 {
  %3 = alloca i32, align 4
  %4 = alloca ptr, align 8
  %5 = alloca ptr, align 8
  %6 = alloca i32, align 4
  %7 = alloca i8, align 1
  store i32 %0, ptr %3, align 4, !tbaa !22
  store ptr %1, ptr %4, align 8, !tbaa !3
  call void @llvm.lifetime.start.p0(i64 8, ptr %5) #8
  %8 = load ptr, ptr %4, align 8, !tbaa !3
  store ptr %8, ptr %5, align 8, !tbaa !26
  call void @llvm.lifetime.start.p0(i64 4, ptr %6) #8
  store i32 0, ptr %6, align 4, !tbaa !22
  call void @llvm.lifetime.start.p0(i64 1, ptr %7) #8
  store i8 0, ptr %7, align 1, !tbaa !11
  %9 = load i8, ptr @H5EA_init_g, align 1, !tbaa !11, !range !13, !noundef !14
  %10 = trunc i8 %9 to i1
  br i1 %10, label %15, label %11

11:                                               ; preds = %2
  %12 = load i8, ptr @H5_libterm_g, align 1, !tbaa !11, !range !13, !noundef !14
  %13 = trunc i8 %12 to i1
  %14 = xor i1 %13, true
  br label %15

15:                                               ; preds = %11, %2
  %16 = phi i1 [ true, %2 ], [ %14, %11 ]
  %17 = xor i1 %16, true
  %18 = xor i1 %17, true
  %19 = zext i1 %18 to i32
  %20 = sext i32 %19 to i64
  %21 = call i64 @llvm.expect.i64(i64 %20, i64 1)
  %22 = icmp ne i64 %21, 0
  br i1 %22, label %23, label %123

23:                                               ; preds = %15
  %24 = load ptr, ptr %5, align 8, !tbaa !26
  %25 = getelementptr inbounds nuw %struct.H5EA_hdr_t, ptr %24, i32 0, i32 18
  %26 = load i8, ptr %25, align 8, !tbaa !96, !range !13, !noundef !14
  %27 = trunc i8 %26 to i1
  br i1 %27, label %28, label %120

28:                                               ; preds = %23
  %29 = load i32, ptr %3, align 4, !tbaa !22
  switch i32 %29, label %100 [
    i32 0, label %30
    i32 1, label %30
    i32 2, label %30
    i32 4, label %30
    i32 5, label %30
    i32 6, label %30
    i32 7, label %30
    i32 8, label %30
    i32 9, label %30
    i32 3, label %31
  ]

30:                                               ; preds = %28, %28, %28, %28, %28, %28, %28, %28, %28
  br label %119

31:                                               ; preds = %28
  %32 = load ptr, ptr %5, align 8, !tbaa !26
  %33 = getelementptr inbounds nuw %struct.H5EA_hdr_t, ptr %32, i32 0, i32 20
  %34 = load ptr, ptr %33, align 8, !tbaa !97
  %35 = icmp ne ptr %34, null
  br i1 %35, label %36, label %67

36:                                               ; preds = %31
  %37 = load ptr, ptr %5, align 8, !tbaa !26
  %38 = getelementptr inbounds nuw %struct.H5EA_hdr_t, ptr %37, i32 0, i32 20
  %39 = load ptr, ptr %38, align 8, !tbaa !97
  %40 = load ptr, ptr %5, align 8, !tbaa !26
  %41 = getelementptr inbounds nuw %struct.H5EA_hdr_t, ptr %40, i32 0, i32 19
  %42 = load ptr, ptr %41, align 8, !tbaa !98
  %43 = call i32 @H5AC_proxy_entry_remove_child(ptr noundef %39, ptr noundef %42)
  %44 = icmp slt i32 %43, 0
  br i1 %44, label %45, label %64

45:                                               ; preds = %36
  br label %46

46:                                               ; preds = %45
  br label %47

47:                                               ; preds = %46
  br label %48

48:                                               ; preds = %47
  %49 = load i64, ptr @H5E_EARRAY_g, align 8, !tbaa !19
  %50 = load i64, ptr @H5E_CANTUNDEPEND_g, align 8, !tbaa !19
  %51 = call i32 (ptr, ptr, i32, i64, i64, ptr, ...) @H5E_printf_stack(ptr noundef @.str.5, ptr noundef @__func__.H5EA__cache_hdr_notify, i32 noundef 534, i64 noundef %49, i64 noundef %50, ptr noundef @.str.14)
  br label %52

52:                                               ; preds = %48
  br label %53

53:                                               ; preds = %52
  store i8 1, ptr %7, align 1, !tbaa !11
  %54 = load i8, ptr %7, align 1, !tbaa !11, !range !13, !noundef !14
  %55 = trunc i8 %54 to i1
  %56 = zext i1 %55 to i8
  store i8 %56, ptr %7, align 1, !tbaa !11
  br label %57

57:                                               ; preds = %53
  br label %58

58:                                               ; preds = %57
  br label %59

59:                                               ; preds = %58
  store i32 -1, ptr %6, align 4, !tbaa !22
  br label %122

60:                                               ; No predecessors!
  br label %61

61:                                               ; preds = %60
  br label %62

62:                                               ; preds = %61
  br label %63

63:                                               ; preds = %62
  br label %64

64:                                               ; preds = %63, %36
  %65 = load ptr, ptr %5, align 8, !tbaa !26
  %66 = getelementptr inbounds nuw %struct.H5EA_hdr_t, ptr %65, i32 0, i32 20
  store ptr null, ptr %66, align 8, !tbaa !97
  br label %67

67:                                               ; preds = %64, %31
  %68 = load ptr, ptr %5, align 8, !tbaa !26
  %69 = getelementptr inbounds nuw %struct.H5EA_hdr_t, ptr %68, i32 0, i32 19
  %70 = load ptr, ptr %69, align 8, !tbaa !98
  %71 = icmp ne ptr %70, null
  br i1 %71, label %72, label %99

72:                                               ; preds = %67
  %73 = load ptr, ptr %5, align 8, !tbaa !26
  %74 = getelementptr inbounds nuw %struct.H5EA_hdr_t, ptr %73, i32 0, i32 19
  %75 = load ptr, ptr %74, align 8, !tbaa !98
  %76 = load ptr, ptr %5, align 8, !tbaa !26
  %77 = call i32 @H5AC_proxy_entry_remove_child(ptr noundef %75, ptr noundef %76)
  %78 = icmp slt i32 %77, 0
  br i1 %78, label %79, label %98

79:                                               ; preds = %72
  br label %80

80:                                               ; preds = %79
  br label %81

81:                                               ; preds = %80
  br label %82

82:                                               ; preds = %81
  %83 = load i64, ptr @H5E_EARRAY_g, align 8, !tbaa !19
  %84 = load i64, ptr @H5E_CANTUNDEPEND_g, align 8, !tbaa !19
  %85 = call i32 (ptr, ptr, i32, i64, i64, ptr, ...) @H5E_printf_stack(ptr noundef @.str.5, ptr noundef @__func__.H5EA__cache_hdr_notify, i32 noundef 543, i64 noundef %83, i64 noundef %84, ptr noundef @.str.15)
  br label %86

86:                                               ; preds = %82
  br label %87

87:                                               ; preds = %86
  store i8 1, ptr %7, align 1, !tbaa !11
  %88 = load i8, ptr %7, align 1, !tbaa !11, !range !13, !noundef !14
  %89 = trunc i8 %88 to i1
  %90 = zext i1 %89 to i8
  store i8 %90, ptr %7, align 1, !tbaa !11
  br label %91

91:                                               ; preds = %87
  br label %92

92:                                               ; preds = %91
  br label %93

93:                                               ; preds = %92
  store i32 -1, ptr %6, align 4, !tbaa !22
  br label %122

94:                                               ; No predecessors!
  br label %95

95:                                               ; preds = %94
  br label %96

96:                                               ; preds = %95
  br label %97

97:                                               ; preds = %96
  br label %98

98:                                               ; preds = %97, %72
  br label %99

99:                                               ; preds = %98, %67
  br label %119

100:                                              ; preds = %28
  br label %101

101:                                              ; preds = %100
  br label %102

102:                                              ; preds = %101
  br label %103

103:                                              ; preds = %102
  %104 = load i64, ptr @H5E_EARRAY_g, align 8, !tbaa !19
  %105 = load i64, ptr @H5E_BADVALUE_g, align 8, !tbaa !19
  %106 = call i32 (ptr, ptr, i32, i64, i64, ptr, ...) @H5E_printf_stack(ptr noundef @.str.5, ptr noundef @__func__.H5EA__cache_hdr_notify, i32 noundef 550, i64 noundef %104, i64 noundef %105, ptr noundef @.str.16)
  br label %107

107:                                              ; preds = %103
  br label %108

108:                                              ; preds = %107
  store i8 1, ptr %7, align 1, !tbaa !11
  %109 = load i8, ptr %7, align 1, !tbaa !11, !range !13, !noundef !14
  %110 = trunc i8 %109 to i1
  %111 = zext i1 %110 to i8
  store i8 %111, ptr %7, align 1, !tbaa !11
  br label %112

112:                                              ; preds = %108
  br label %113

113:                                              ; preds = %112
  br label %114

114:                                              ; preds = %113
  store i32 -1, ptr %6, align 4, !tbaa !22
  br label %122

115:                                              ; No predecessors!
  br label %116

116:                                              ; preds = %115
  br label %117

117:                                              ; preds = %116
  br label %118

118:                                              ; preds = %117
  br label %119

119:                                              ; preds = %118, %99, %30
  br label %121

120:                                              ; preds = %23
  br label %121

121:                                              ; preds = %120, %119
  br label %122

122:                                              ; preds = %121, %114, %93, %59
  br label %123

123:                                              ; preds = %122, %15
  %124 = load i32, ptr %6, align 4, !tbaa !22
  call void @llvm.lifetime.end.p0(i64 1, ptr %7) #8
  call void @llvm.lifetime.end.p0(i64 4, ptr %6) #8
  call void @llvm.lifetime.end.p0(i64 8, ptr %5) #8
  ret i32 %124
}